target datalayout = "e-m:e-p270:32:32-p271:32:32-p272:64:64-i64:64-i128:128-f80:128-n8:16:32:64-S128"
target triple = "x86_64-pc-linux-gnu"

%"class.icu_77::MlBreakEngine" = type <{ ptr, %"class.icu_77::UnicodeSet", %"class.icu_77::UnicodeSet", [13 x %"class.icu_77::Hashtable"], i32, [4 x i8] }>
%"class.icu_77::UnicodeSet" = type <{ %"class.icu_77::UnicodeFilter", ptr, i32, i32, i8, [7 x i8], ptr, ptr, i32, [4 x i8], ptr, i32, [4 x i8], ptr, ptr, [25 x i32], [4 x i8] }>
%"class.icu_77::UnicodeFilter" = type { %"class.icu_77::UnicodeFunctor", %"class.icu_77::UnicodeMatcher" }
%"class.icu_77::UnicodeFunctor" = type { %"class.icu_77::UObject" }
%"class.icu_77::UObject" = type { ptr }
%"class.icu_77::UnicodeMatcher" = type { ptr }
%"class.icu_77::Hashtable" = type { ptr, %struct.UHashtable }
%struct.UHashtable = type { ptr, ptr, ptr, ptr, ptr, ptr, i32, i32, i32, i32, float, float, i8, i8 }

@_ZTVN6icu_7713MlBreakEngineE = unnamed_addr constant { [4 x ptr] } { [4 x ptr] [ptr null, ptr @_ZTIN6icu_7713MlBreakEngineE, ptr @_ZN6icu_7713MlBreakEngineD1Ev, ptr @_ZN6icu_7713MlBreakEngineD0Ev] }, align 8

; Function Attrs: inlinehint mustprogress nounwind uwtable
define internal noundef signext i8 @_ZL9U_SUCCESS10UErrorCode(i32 noundef %0) #2 {
  %2 = alloca i32, align 4
  store i32 %0, ptr %2, align 4, !tbaa !15
  %3 = load i32, ptr %2, align 4, !tbaa !15
  %4 = icmp sle i32 %3, 0
  %5 = zext i1 %4 to i8
  ret i8 %5
}

; Function Attrs: inlinehint mustprogress uwtable
define linkonce_odr void @_ZN6icu_779Hashtable4initEPFi8UElementEPFaS1_S1_ES5_R10UErrorCode(ptr noundef nonnull align 8 dereferenceable(88) %0, ptr noundef %1, ptr noundef %2, ptr noundef %3, ptr noundef nonnull align 4 dereferenceable(4) %4) #3 comdat align 2 {
  %6 = alloca ptr, align 8
  %7 = alloca ptr, align 8
  %8 = alloca ptr, align 8
  %9 = alloca ptr, align 8
  %10 = alloca ptr, align 8
  store ptr %0, ptr %6, align 8, !tbaa !40
  store ptr %1, ptr %7, align 8, !tbaa !22
  store ptr %2, ptr %8, align 8, !tbaa !22
  store ptr %3, ptr %9, align 8, !tbaa !22
  store ptr %4, ptr %10, align 8, !tbaa !22
  %11 = load ptr, ptr %6, align 8
  %12 = load ptr, ptr %10, align 8, !tbaa !22
  %13 = load i32, ptr %12, align 4, !tbaa !15
  %14 = call noundef signext i8 @_ZL9U_FAILURE10UErrorCode(i32 noundef %13)
  %15 = icmp ne i8 %14, 0
  br i1 %15, label %16, label %17

16:                                               ; preds = %5
  br label %34

17:                                               ; preds = %5
  %18 = getelementptr inbounds nuw %"class.icu_77::Hashtable", ptr %11, i32 0, i32 1
  %19 = load ptr, ptr %7, align 8, !tbaa !22
  %20 = load ptr, ptr %8, align 8, !tbaa !22
  %21 = load ptr, ptr %9, align 8, !tbaa !22
  %22 = load ptr, ptr %10, align 8, !tbaa !22
  %23 = call ptr @uhash_init_77(ptr noundef %18, ptr noundef %19, ptr noundef %20, ptr noundef %21, ptr noundef %22)
  %24 = load ptr, ptr %10, align 8, !tbaa !22
  %25 = load i32, ptr %24, align 4, !tbaa !15
  %26 = call noundef signext i8 @_ZL9U_SUCCESS10UErrorCode(i32 noundef %25)
  %27 = icmp ne i8 %26, 0
  br i1 %27, label %28, label %34

28:                                               ; preds = %17
  %29 = getelementptr inbounds nuw %"class.icu_77::Hashtable", ptr %11, i32 0, i32 1
  %30 = getelementptr inbounds nuw %"class.icu_77::Hashtable", ptr %11, i32 0, i32 0
  store ptr %29, ptr %30, align 8, !tbaa !42
  %31 = getelementptr inbounds nuw %"class.icu_77::Hashtable", ptr %11, i32 0, i32 0
  %32 = load ptr, ptr %31, align 8, !tbaa !42
  %33 = call ptr @uhash_setKeyDeleter_77(ptr noundef %32, ptr noundef @uprv_deleteUObject_77)
  br label %34

34:                                               ; preds = %16, %28, %17
  ret void
}

; Function Attrs: inlinehint mustprogress nounwind uwtable
define internal noundef signext i8 @_ZL9U_FAILURE10UErrorCode(i32 noundef %0) #2 {
  %2 = alloca i32, align 4
  store i32 %0, ptr %2, align 4, !tbaa !15
  %3 = load i32, ptr %2, align 4, !tbaa !15
  %4 = icmp sgt i32 %3, 0
  %5 = zext i1 %4 to i8
  ret i8 %5
}

; Function Attrs: inlinehint mustprogress uwtable
define linkonce_odr void @_ZN6icu_779HashtableC2Ev(ptr noundef nonnull align 8 dereferenceable(88) %0) unnamed_addr #3 comdat align 2 {
  %2 = alloca ptr, align 8
  %3 = alloca i32, align 4
  store ptr %0, ptr %2, align 8, !tbaa !40
  %4 = load ptr, ptr %2, align 8
  %5 = getelementptr inbounds nuw %"class.icu_77::Hashtable", ptr %4, i32 0, i32 0
  store ptr null, ptr %5, align 8, !tbaa !42
  call void @llvm.lifetime.start.p0(i64 4, ptr %3) #11
  store i32 0, ptr %3, align 4, !tbaa !15
  call void @_ZN6icu_779Hashtable4initEPFi8UElementEPFaS1_S1_ES5_R10UErrorCode(ptr noundef nonnull align 8 dereferenceable(88) %4, ptr noundef @uhash_hashUnicodeString_77, ptr noundef @uhash_compareUnicodeString_77, ptr noundef null, ptr noundef nonnull align 4 dereferenceable(4) %3)
  call void @llvm.lifetime.end.p0(i64 4, ptr %3) #11
  ret void
}

; Function Attrs: mustprogress uwtable
define void @_ZN6icu_7713MlBreakEngineC2ERKNS_10UnicodeSetES3_R10UErrorCode(ptr noundef nonnull align 8 dereferenceable(1556) %0, ptr noundef nonnull align 8 dereferenceable(200) %1, ptr noundef nonnull align 8 dereferenceable(200) %2, ptr noundef nonnull align 4 dereferenceable(4) %3) unnamed_addr #1 align 2 personality ptr @__gxx_personality_v0 {
  %5 = alloca ptr, align 8
  %6 = alloca ptr, align 8
  %7 = alloca ptr, align 8
  %8 = alloca ptr, align 8
  %9 = alloca ptr, align 8
  %10 = alloca i32, align 4
  store ptr %0, ptr %5, align 8, !tbaa !23
  store ptr %1, ptr %6, align 8, !tbaa !25
  store ptr %2, ptr %7, align 8, !tbaa !25
  store ptr %3, ptr %8, align 8, !tbaa !22
  %11 = load ptr, ptr %5, align 8
  store ptr getelementptr inbounds inrange(-16, 16) ({ [4 x ptr] }, ptr @_ZTVN6icu_7713MlBreakEngineE, i32 0, i32 0, i32 2), ptr %11, align 8, !tbaa !27
  %12 = getelementptr inbounds nuw %"class.icu_77::MlBreakEngine", ptr %11, i32 0, i32 1
  %13 = load ptr, ptr %6, align 8, !tbaa !25
  call void @_ZN6icu_7710UnicodeSetC1ERKS0_(ptr noundef nonnull align 8 dereferenceable(200) %12, ptr noundef nonnull align 8 dereferenceable(200) %13)
  %14 = getelementptr inbounds nuw %"class.icu_77::MlBreakEngine", ptr %11, i32 0, i32 2
  %15 = load ptr, ptr %7, align 8, !tbaa !25
  invoke void @_ZN6icu_7710UnicodeSetC1ERKS0_(ptr noundef nonnull align 8 dereferenceable(200) %14, ptr noundef nonnull align 8 dereferenceable(200) %15)
          to label %16 unwind label %33

16:                                               ; preds = %4
  %17 = getelementptr inbounds nuw %"class.icu_77::MlBreakEngine", ptr %11, i32 0, i32 3
  %18 = getelementptr inbounds [13 x %"class.icu_77::Hashtable"], ptr %17, i32 0, i32 0
  %19 = getelementptr inbounds %"class.icu_77::Hashtable", ptr %18, i64 13
  br label %20

20:                                               ; preds = %22, %16
  %21 = phi ptr [ %18, %16 ], [ %23, %22 ]
  invoke void @_ZN6icu_779HashtableC2Ev(ptr noundef nonnull align 8 dereferenceable(88) %21)
          to label %22 unwind label %37

22:                                               ; preds = %20
  %23 = getelementptr inbounds %"class.icu_77::Hashtable", ptr %21, i64 1
  %24 = icmp eq ptr %23, %19
  br i1 %24, label %25, label %20

25:                                               ; preds = %22
  %26 = getelementptr inbounds nuw %"class.icu_77::MlBreakEngine", ptr %11, i32 0, i32 4
  store i32 0, ptr %26, align 8, !tbaa !29
  %27 = load ptr, ptr %8, align 8, !tbaa !22
  %28 = load i32, ptr %27, align 4, !tbaa !15
  %29 = invoke noundef signext i8 @_ZL9U_FAILURE10UErrorCode(i32 noundef %28)
          to label %30 unwind label %47

30:                                               ; preds = %25
  %31 = icmp ne i8 %29, 0
  br i1 %31, label %32, label %53

32:                                               ; preds = %30
  br label %55

33:                                               ; preds = %4
  %34 = landingpad { ptr, i32 }
          cleanup
  %35 = extractvalue { ptr, i32 } %34, 0
  store ptr %35, ptr %9, align 8
  %36 = extractvalue { ptr, i32 } %34, 1
  store i32 %36, ptr %10, align 4
  br label %62

37:                                               ; preds = %20
  %38 = landingpad { ptr, i32 }
          cleanup
  %39 = extractvalue { ptr, i32 } %38, 0
  store ptr %39, ptr %9, align 8
  %40 = extractvalue { ptr, i32 } %38, 1
  store i32 %40, ptr %10, align 4
  %41 = icmp eq ptr %18, %21
  br i1 %41, label %46, label %42

42:                                               ; preds = %42, %37
  %43 = phi ptr [ %21, %37 ], [ %44, %42 ]
  %44 = getelementptr inbounds %"class.icu_77::Hashtable", ptr %43, i64 -1
  call void @_ZN6icu_779HashtableD2Ev(ptr noundef nonnull align 8 dereferenceable(88) %44) #11
  %45 = icmp eq ptr %44, %18
  br i1 %45, label %46, label %42

46:                                               ; preds = %42, %37
  br label %61

47:                                               ; preds = %53, %25
  %48 = landingpad { ptr, i32 }
          cleanup
  %49 = extractvalue { ptr, i32 } %48, 0
  store ptr %49, ptr %9, align 8
  %50 = extractvalue { ptr, i32 } %48, 1
  store i32 %50, ptr %10, align 4
  %51 = getelementptr inbounds [13 x %"class.icu_77::Hashtable"], ptr %17, i32 0, i32 0
  %52 = getelementptr inbounds %"class.icu_77::Hashtable", ptr %51, i64 13
  br label %56

53:                                               ; preds = %30
  %54 = load ptr, ptr %8, align 8, !tbaa !22
  invoke void @_ZN6icu_7713MlBreakEngine11loadMLModelER10UErrorCode(ptr noundef nonnull align 8 dereferenceable(1556) %11, ptr noundef nonnull align 4 dereferenceable(4) %54)
          to label %55 unwind label %47

55:                                               ; preds = %32, %53
  ret void

56:                                               ; preds = %56, %47
  %57 = phi ptr [ %52, %47 ], [ %58, %56 ]
  %58 = getelementptr inbounds %"class.icu_77::Hashtable", ptr %57, i64 -1
  call void @_ZN6icu_779HashtableD2Ev(ptr noundef nonnull align 8 dereferenceable(88) %58) #11
  %59 = icmp eq ptr %58, %51
  br i1 %59, label %60, label %56

60:                                               ; preds = %56
  br label %61

61:                                               ; preds = %60, %46
  call void @_ZN6icu_7710UnicodeSetD1Ev(ptr noundef nonnull align 8 dereferenceable(200) %14) #11
  br label %62

62:                                               ; preds = %61, %33
  call void @_ZN6icu_7710UnicodeSetD1Ev(ptr noundef nonnull align 8 dereferenceable(200) %12) #11
  br label %63

63:                                               ; preds = %62
  %64 = load ptr, ptr %9, align 8
  %65 = load i32, ptr %10, align 4
  %66 = insertvalue { ptr, i32 } poison, ptr %64, 0
  %67 = insertvalue { ptr, i32 } %66, i32 %65, 1
  resume { ptr, i32 } %67
}