; Function Attrs: mustprogress uwtable
define void @_ZN6icu_7713MlBreakEngineC2ERKNS_10UnicodeSetES3_R10UErrorCode(ptr noundef nonnull align 8 dereferenceable(1556) initializes((0, 8)) %0, ptr noundef nonnull align 8 dereferenceable(200) %1, ptr noundef nonnull align 8 dereferenceable(200) %2, ptr noundef nonnull align 4 dereferenceable(4) %3) unnamed_addr #1 align 2 personality ptr @__gxx_personality_v0 {
  %5 = alloca i32, align 4
  store ptr getelementptr inbounds nuw inrange(-16, 16) (i8, ptr @_ZTVN6icu_7713MlBreakEngineE, i64 16), ptr %0, align 8, !tbaa !15
  %6 = getelementptr inbounds nuw i8, ptr %0, i64 8
  tail call void @_ZN6icu_7710UnicodeSetC1ERKS0_(ptr noundef nonnull align 8 dereferenceable(200) %6, ptr noundef nonnull align 8 dereferenceable(200) %1)
  %7 = getelementptr inbounds nuw i8, ptr %0, i64 208
  invoke void @_ZN6icu_7710UnicodeSetC1ERKS0_(ptr noundef nonnull align 8 dereferenceable(200) %7, ptr noundef nonnull align 8 dereferenceable(200) %2)
          to label %.preheader25 unwind label %20

.preheader25:                                     ; preds = %4, %14
  %.idx = phi i64 [ %.add, %14 ], [ 408, %4 ]
  %.ptr.ptr = getelementptr inbounds nuw i8, ptr %0, i64 %.idx
  store ptr null, ptr %.ptr.ptr, align 8, !tbaa !17
  call void @llvm.lifetime.start.p0(i64 4, ptr nonnull %5) #13
  store i32 0, ptr %5, align 4, !tbaa !13
  %8 = getelementptr inbounds nuw i8, ptr %.ptr.ptr, i64 8
  %9 = invoke ptr @uhash_init_77(ptr noundef nonnull %8, ptr noundef nonnull @uhash_hashUnicodeString_77, ptr noundef nonnull @uhash_compareUnicodeString_77, ptr noundef null, ptr noundef nonnull align 4 dereferenceable(4) %5)
          to label %.noexc unwind label %22

.noexc:                                           ; preds = %.preheader25
  %10 = load i32, ptr %5, align 4, !tbaa !13
  %11 = icmp sgt i32 %10, 0
  br i1 %11, label %14, label %12

12:                                               ; preds = %.noexc
  store ptr %8, ptr %.ptr.ptr, align 8, !tbaa !17
  %13 = invoke ptr @uhash_setKeyDeleter_77(ptr noundef nonnull %8, ptr noundef nonnull @uprv_deleteUObject_77)
          to label %14 unwind label %22

14:                                               ; preds = %.noexc, %12
  call void @llvm.lifetime.end.p0(i64 4, ptr nonnull %5) #13
  %.add = add nuw nsw i64 %.idx, 88
  %15 = icmp samesign eq i64 %.add, 1552
  br i1 %15, label %16, label %.preheader25

16:                                               ; preds = %14
  %17 = getelementptr inbounds nuw i8, ptr %0, i64 1552
  store i32 0, ptr %17, align 8, !tbaa !23
  %18 = load i32, ptr %3, align 4, !tbaa !13
  %19 = icmp slt i32 %18, 1
  br i1 %19, label %28, label %29

20:                                               ; preds = %4
  %21 = landingpad { ptr, i32 }
          cleanup
  br label %32

22:                                               ; preds = %12, %.preheader25
  %23 = landingpad { ptr, i32 }
          cleanup
  %24 = icmp eq i64 %.idx, 408
  br i1 %24, label %.loopexit, label %.preheader

.preheader:                                       ; preds = %22, %.preheader
  %.idx13 = phi i64 [ %.add14, %.preheader ], [ %.idx, %22 ]
  %.add14 = add nsw i64 %.idx13, -88
  %.ptr16 = getelementptr inbounds i8, ptr %0, i64 %.add14
  call void @_ZN6icu_779HashtableD2Ev(ptr noundef nonnull align 8 dereferenceable(88) %.ptr16) #13
  %25 = icmp eq i64 %.add14, 408
  br i1 %25, label %.loopexit, label %.preheader

26:                                               ; preds = %28
  %27 = landingpad { ptr, i32 }
          cleanup
  br label %30

28:                                               ; preds = %16
  invoke void @_ZN6icu_7713MlBreakEngine11loadMLModelER10UErrorCode(ptr noundef nonnull align 8 dereferenceable(1556) %0, ptr noundef nonnull align 4 dereferenceable(4) %3)
          to label %29 unwind label %26

29:                                               ; preds = %16, %28
  ret void

30:                                               ; preds = %30, %26
  %.idx17 = phi i64 [ 1552, %26 ], [ %.add18, %30 ]
  %.add18 = add nsw i64 %.idx17, -88
  %.ptr19 = getelementptr inbounds i8, ptr %0, i64 %.add18
  call void @_ZN6icu_779HashtableD2Ev(ptr noundef nonnull align 8 dereferenceable(88) %.ptr19) #13
  %31 = icmp eq i64 %.add18, 408
  br i1 %31, label %.loopexit, label %30

.loopexit:                                        ; preds = %.preheader, %30, %22
  %.pn = phi { ptr, i32 } [ %23, %22 ], [ %27, %30 ], [ %23, %.preheader ]
  call void @_ZN6icu_7710UnicodeSetD1Ev(ptr noundef nonnull align 8 dereferenceable(200) %7) #13
  br label %32

32:                                               ; preds = %.loopexit, %20
  %.pn.pn = phi { ptr, i32 } [ %.pn, %.loopexit ], [ %21, %20 ]
  call void @_ZN6icu_7710UnicodeSetD1Ev(ptr noundef nonnull align 8 dereferenceable(200) %6) #13
  resume { ptr, i32 } %.pn.pn
}